target datalayout = "e-m:e-p270:32:32-p271:32:32-p272:64:64-i64:64-i128:128-f80:128-n8:16:32:64-S128"
target triple = "x86_64-unknown-linux-gnu"

%class.b3Vector3 = type { %union.anon.1 }
%union.anon.1 = type { [4 x float] }
%struct.anon.2 = type { float, float, float, float }

; Function Attrs: mustprogress nounwind uwtable
define linkonce_odr dso_local void @_ZN9b3Vector38setValueERKfS1_S1_(ptr noundef nonnull align 16 dereferenceable(16) %this, ptr noundef nonnull align 4 dereferenceable(4) %_x, ptr noundef nonnull align 4 dereferenceable(4) %_y, ptr noundef nonnull align 4 dereferenceable(4) %_z) #3 comdat align 2 {
entry:
  %this.addr = alloca ptr, align 8
  %_x.addr = alloca ptr, align 8
  %_y.addr = alloca ptr, align 8
  %_z.addr = alloca ptr, align 8
  store ptr %this, ptr %this.addr, align 8
  store ptr %_x, ptr %_x.addr, align 8
  store ptr %_y, ptr %_y.addr, align 8
  store ptr %_z, ptr %_z.addr, align 8
  %this1 = load ptr, ptr %this.addr, align 8
  %0 = load ptr, ptr %_x.addr, align 8
  %1 = load float, ptr %0, align 4
  %2 = getelementptr inbounds %class.b3Vector3, ptr %this1, i32 0, i32 0
  %arrayidx = getelementptr inbounds [4 x float], ptr %2, i64 0, i64 0
  store float %1, ptr %arrayidx, align 16
  %3 = load ptr, ptr %_y.addr, align 8
  %4 = load float, ptr %3, align 4
  %5 = getelementptr inbounds %class.b3Vector3, ptr %this1, i32 0, i32 0
  %arrayidx2 = getelementptr inbounds [4 x float], ptr %5, i64 0, i64 1
  store float %4, ptr %arrayidx2, align 4
  %6 = load ptr, ptr %_z.addr, align 8
  %7 = load float, ptr %6, align 4
  %8 = getelementptr inbounds %class.b3Vector3, ptr %this1, i32 0, i32 0
  %arrayidx3 = getelementptr inbounds [4 x float], ptr %8, i64 0, i64 2
  store float %7, ptr %arrayidx3, align 8
  %9 = getelementptr inbounds %class.b3Vector3, ptr %this1, i32 0, i32 0
  %arrayidx4 = getelementptr inbounds [4 x float], ptr %9, i64 0, i64 3
  store float 0.000000e+00, ptr %arrayidx4, align 4
  ret void
}

; Function Attrs: mustprogress nounwind uwtable
define linkonce_odr dso_local { <2 x float>, <2 x float> } @_Z13b3MakeVector3ffff(float noundef %x, float noundef %y, float noundef %z, float noundef %w) #3 comdat {
entry:
  %retval = alloca %class.b3Vector3, align 16
  %x.addr = alloca float, align 4
  %y.addr = alloca float, align 4
  %z.addr = alloca float, align 4
  %w.addr = alloca float, align 4
  store float %x, ptr %x.addr, align 4
  store float %y, ptr %y.addr, align 4
  store float %z, ptr %z.addr, align 4
  store float %w, ptr %w.addr, align 4
  call void @_ZN9b3Vector38setValueERKfS1_S1_(ptr noundef nonnull align 16 dereferenceable(16) %retval, ptr noundef nonnull align 4 dereferenceable(4) %x.addr, ptr noundef nonnull align 4 dereferenceable(4) %y.addr, ptr noundef nonnull align 4 dereferenceable(4) %z.addr)
  %0 = load float, ptr %w.addr, align 4
  %1 = getelementptr inbounds %class.b3Vector3, ptr %retval, i32 0, i32 0
  %w1 = getelementptr inbounds %struct.anon.2, ptr %1, i32 0, i32 3
  store float %0, ptr %w1, align 4
  %coerce.dive = getelementptr inbounds %class.b3Vector3, ptr %retval, i32 0, i32 0
  %coerce.dive2 = getelementptr inbounds %union.anon.1, ptr %coerce.dive, i32 0, i32 0
  %2 = load { <2 x float>, <2 x float> }, ptr %coerce.dive2, align 16
  ret { <2 x float>, <2 x float> } %2
}

; Function Attrs: mustprogress nounwind uwtable
define linkonce_odr dso_local noundef float @_ZNK9b3Vector33dotERKS_(ptr noundef nonnull align 16 dereferenceable(16) %this, ptr noundef nonnull align 16 dereferenceable(16) %v) #3 comdat align 2 {
entry:
  %this.addr = alloca ptr, align 8
  %v.addr = alloca ptr, align 8
  store ptr %this, ptr %this.addr, align 8
  store ptr %v, ptr %v.addr, align 8
  %this1 = load ptr, ptr %this.addr, align 8
  %0 = getelementptr inbounds %class.b3Vector3, ptr %this1, i32 0, i32 0
  %arrayidx = getelementptr inbounds [4 x float], ptr %0, i64 0, i64 0
  %1 = load float, ptr %arrayidx, align 16
  %2 = load ptr, ptr %v.addr, align 8
  %3 = getelementptr inbounds %class.b3Vector3, ptr %2, i32 0, i32 0
  %arrayidx2 = getelementptr inbounds [4 x float], ptr %3, i64 0, i64 0
  %4 = load float, ptr %arrayidx2, align 16
  %5 = getelementptr inbounds %class.b3Vector3, ptr %this1, i32 0, i32 0
  %arrayidx3 = getelementptr inbounds [4 x float], ptr %5, i64 0, i64 1
  %6 = load float, ptr %arrayidx3, align 4
  %7 = load ptr, ptr %v.addr, align 8
  %8 = getelementptr inbounds %class.b3Vector3, ptr %7, i32 0, i32 0
  %arrayidx4 = getelementptr inbounds [4 x float], ptr %8, i64 0, i64 1
  %9 = load float, ptr %arrayidx4, align 4
  %mul5 = fmul float %6, %9
  %10 = call float @llvm.fmuladd.f32(float %1, float %4, float %mul5)
  %11 = getelementptr inbounds %class.b3Vector3, ptr %this1, i32 0, i32 0
  %arrayidx6 = getelementptr inbounds [4 x float], ptr %11, i64 0, i64 2
  %12 = load float, ptr %arrayidx6, align 8
  %13 = load ptr, ptr %v.addr, align 8
  %14 = getelementptr inbounds %class.b3Vector3, ptr %13, i32 0, i32 0
  %arrayidx7 = getelementptr inbounds [4 x float], ptr %14, i64 0, i64 2
  %15 = load float, ptr %arrayidx7, align 8
  %16 = call float @llvm.fmuladd.f32(float %12, float %15, float %10)
  ret float %16
}

; Function Attrs: mustprogress nounwind uwtable
define linkonce_odr dso_local { <2 x float>, <2 x float> } @_Z5lerp3RK9b3Vector3S1_f(ptr noundef nonnull align 16 dereferenceable(16) %a, ptr noundef nonnull align 16 dereferenceable(16) %b, float noundef %t) #6 comdat {
entry:
  %retval = alloca %class.b3Vector3, align 16
  %a.addr = alloca ptr, align 8
  %b.addr = alloca ptr, align 8
  %t.addr = alloca float, align 4
  store ptr %a, ptr %a.addr, align 8
  store ptr %b, ptr %b.addr, align 8
  store float %t, ptr %t.addr, align 4
  %0 = load ptr, ptr %a.addr, align 8
  %1 = getelementptr inbounds %class.b3Vector3, ptr %0, i32 0, i32 0
  %x = getelementptr inbounds %struct.anon.2, ptr %1, i32 0, i32 0
  %2 = load float, ptr %x, align 16
  %3 = load ptr, ptr %b.addr, align 8
  %4 = getelementptr inbounds %class.b3Vector3, ptr %3, i32 0, i32 0
  %x1 = getelementptr inbounds %struct.anon.2, ptr %4, i32 0, i32 0
  %5 = load float, ptr %x1, align 16
  %6 = load ptr, ptr %a.addr, align 8
  %7 = getelementptr inbounds %class.b3Vector3, ptr %6, i32 0, i32 0
  %x2 = getelementptr inbounds %struct.anon.2, ptr %7, i32 0, i32 0
  %8 = load float, ptr %x2, align 16
  %sub = fsub float %5, %8
  %9 = load float, ptr %t.addr, align 4
  %10 = call float @llvm.fmuladd.f32(float %sub, float %9, float %2)
  %11 = load ptr, ptr %a.addr, align 8
  %12 = getelementptr inbounds %class.b3Vector3, ptr %11, i32 0, i32 0
  %y = getelementptr inbounds %struct.anon.2, ptr %12, i32 0, i32 1
  %13 = load float, ptr %y, align 4
  %14 = load ptr, ptr %b.addr, align 8
  %15 = getelementptr inbounds %class.b3Vector3, ptr %14, i32 0, i32 0
  %y3 = getelementptr inbounds %struct.anon.2, ptr %15, i32 0, i32 1
  %16 = load float, ptr %y3, align 4
  %17 = load ptr, ptr %a.addr, align 8
  %18 = getelementptr inbounds %class.b3Vector3, ptr %17, i32 0, i32 0
  %y4 = getelementptr inbounds %struct.anon.2, ptr %18, i32 0, i32 1
  %19 = load float, ptr %y4, align 4
  %sub5 = fsub float %16, %19
  %20 = load float, ptr %t.addr, align 4
  %21 = call float @llvm.fmuladd.f32(float %sub5, float %20, float %13)
  %22 = load ptr, ptr %a.addr, align 8
  %23 = getelementptr inbounds %class.b3Vector3, ptr %22, i32 0, i32 0
  %z = getelementptr inbounds %struct.anon.2, ptr %23, i32 0, i32 2
  %24 = load float, ptr %z, align 8
  %25 = load ptr, ptr %b.addr, align 8
  %26 = getelementptr inbounds %class.b3Vector3, ptr %25, i32 0, i32 0
  %z6 = getelementptr inbounds %struct.anon.2, ptr %26, i32 0, i32 2
  %27 = load float, ptr %z6, align 8
  %28 = load ptr, ptr %a.addr, align 8
  %29 = getelementptr inbounds %class.b3Vector3, ptr %28, i32 0, i32 0
  %z7 = getelementptr inbounds %struct.anon.2, ptr %29, i32 0, i32 2
  %30 = load float, ptr %z7, align 8
  %sub8 = fsub float %27, %30
  %31 = load float, ptr %t.addr, align 4
  %32 = call float @llvm.fmuladd.f32(float %sub8, float %31, float %24)
  %call = call { <2 x float>, <2 x float> } @_Z13b3MakeVector3ffff(float noundef %10, float noundef %21, float noundef %32, float noundef 0.000000e+00)
  %coerce.dive = getelementptr inbounds %class.b3Vector3, ptr %retval, i32 0, i32 0
  %coerce.dive9 = getelementptr inbounds %union.anon.1, ptr %coerce.dive, i32 0, i32 0
  %33 = getelementptr inbounds { <2 x float>, <2 x float> }, ptr %coerce.dive9, i32 0, i32 0
  %34 = extractvalue { <2 x float>, <2 x float> } %call, 0
  store <2 x float> %34, ptr %33, align 16
  %35 = getelementptr inbounds { <2 x float>, <2 x float> }, ptr %coerce.dive9, i32 0, i32 1
  %36 = extractvalue { <2 x float>, <2 x float> } %call, 1
  store <2 x float> %36, ptr %35, align 8
  %coerce.dive10 = getelementptr inbounds %class.b3Vector3, ptr %retval, i32 0, i32 0
  %coerce.dive11 = getelementptr inbounds %union.anon.1, ptr %coerce.dive10, i32 0, i32 0
  %37 = load { <2 x float>, <2 x float> }, ptr %coerce.dive11, align 16
  ret { <2 x float>, <2 x float> } %37
}

; Function Attrs: mustprogress uwtable
define linkonce_odr dso_local noundef float @_Z5b3DotRK9b3Vector3S1_(ptr noundef nonnull align 16 dereferenceable(16) %v1, ptr noundef nonnull align 16 dereferenceable(16) %v2) #0 comdat {
entry:
  %v1.addr = alloca ptr, align 8
  %v2.addr = alloca ptr, align 8
  store ptr %v1, ptr %v1.addr, align 8
  store ptr %v2, ptr %v2.addr, align 8
  %0 = load ptr, ptr %v1.addr, align 8
  %1 = load ptr, ptr %v2.addr, align 8
  %call = call noundef float @_ZNK9b3Vector33dotERKS_(ptr noundef nonnull align 16 dereferenceable(16) %0, ptr noundef nonnull align 16 dereferenceable(16) %1)
  ret float %call
}

; Function Attrs: mustprogress uwtable
define dso_local noundef i32 @_Z8clipFacePK9b3Vector3iRS_fPS_(ptr noundef %pVtxIn, i32 noundef %numVertsIn, ptr noundef nonnull align 16 dereferenceable(16) %planeNormalWS, float noundef %planeEqWS, ptr noundef %ppVtxOut) #2 {
entry:
  %retval = alloca i32, align 4
  %pVtxIn.addr = alloca ptr, align 8
  %numVertsIn.addr = alloca i32, align 4
  %planeNormalWS.addr = alloca ptr, align 8
  %planeEqWS.addr = alloca float, align 4
  %ppVtxOut.addr = alloca ptr, align 8
  %ve = alloca i32, align 4
  %ds = alloca float, align 4
  %de = alloca float, align 4
  %numVertsOut = alloca i32, align 4
  %firstVertex = alloca %class.b3Vector3, align 16
  %endVertex = alloca %class.b3Vector3, align 16
  %ref.tmp = alloca %class.b3Vector3, align 16
  %ref.tmp23 = alloca %class.b3Vector3, align 16
  store ptr %pVtxIn, ptr %pVtxIn.addr, align 8
  store i32 %numVertsIn, ptr %numVertsIn.addr, align 4
  store ptr %planeNormalWS, ptr %planeNormalWS.addr, align 8
  store float %planeEqWS, ptr %planeEqWS.addr, align 4
  store ptr %ppVtxOut, ptr %ppVtxOut.addr, align 8
  store i32 0, ptr %numVertsOut, align 4
  %0 = load i32, ptr %numVertsIn.addr, align 4
  %cmp = icmp slt i32 %0, 2
  br i1 %cmp, label %if.then, label %if.end

if.then:                                          ; preds = %entry
  store i32 0, ptr %retval, align 4
  br label %return

if.end:                                           ; preds = %entry
  %1 = load ptr, ptr %pVtxIn.addr, align 8
  %2 = load i32, ptr %numVertsIn.addr, align 4
  %sub = sub nsw i32 %2, 1
  %idxprom = sext i32 %sub to i64
  %arrayidx = getelementptr inbounds %class.b3Vector3, ptr %1, i64 %idxprom
  call void @llvm.memcpy.p0.p0.i64(ptr align 16 %firstVertex, ptr align 16 %arrayidx, i64 16, i1 false)
  %3 = load ptr, ptr %pVtxIn.addr, align 8
  %arrayidx1 = getelementptr inbounds %class.b3Vector3, ptr %3, i64 0
  call void @llvm.memcpy.p0.p0.i64(ptr align 16 %endVertex, ptr align 16 %arrayidx1, i64 16, i1 false)
  %4 = load ptr, ptr %planeNormalWS.addr, align 8
  %call = call noundef float @_Z5b3DotRK9b3Vector3S1_(ptr noundef nonnull align 16 dereferenceable(16) %4, ptr noundef nonnull align 16 dereferenceable(16) %firstVertex)
  %5 = load float, ptr %planeEqWS.addr, align 4
  %add = fadd float %call, %5
  store float %add, ptr %ds, align 4
  store i32 0, ptr %ve, align 4
  br label %for.cond

for.cond:                                         ; preds = %for.inc, %if.end
  %6 = load i32, ptr %ve, align 4
  %7 = load i32, ptr %numVertsIn.addr, align 4
  %cmp2 = icmp slt i32 %6, %7
  br i1 %cmp2, label %for.body, label %for.end

for.body:                                         ; preds = %for.cond
  %8 = load ptr, ptr %pVtxIn.addr, align 8
  %9 = load i32, ptr %ve, align 4
  %idxprom3 = sext i32 %9 to i64
  %arrayidx4 = getelementptr inbounds %class.b3Vector3, ptr %8, i64 %idxprom3
  call void @llvm.memcpy.p0.p0.i64(ptr align 16 %endVertex, ptr align 16 %arrayidx4, i64 16, i1 false)
  %10 = load ptr, ptr %planeNormalWS.addr, align 8
  %call5 = call noundef float @_Z5b3DotRK9b3Vector3S1_(ptr noundef nonnull align 16 dereferenceable(16) %10, ptr noundef nonnull align 16 dereferenceable(16) %endVertex)
  %11 = load float, ptr %planeEqWS.addr, align 4
  %add6 = fadd float %call5, %11
  store float %add6, ptr %de, align 4
  %12 = load float, ptr %ds, align 4
  %cmp7 = fcmp olt float %12, 0.000000e+00
  br i1 %cmp7, label %if.then8, label %if.else20

if.then8:                                         ; preds = %for.body
  %13 = load float, ptr %de, align 4
  %cmp9 = fcmp olt float %13, 0.000000e+00
  br i1 %cmp9, label %if.then10, label %if.else

if.then10:                                        ; preds = %if.then8
  %14 = load ptr, ptr %ppVtxOut.addr, align 8
  %15 = load i32, ptr %numVertsOut, align 4
  %inc = add nsw i32 %15, 1
  store i32 %inc, ptr %numVertsOut, align 4
  %idxprom11 = sext i32 %15 to i64
  %arrayidx12 = getelementptr inbounds %class.b3Vector3, ptr %14, i64 %idxprom11
  call void @llvm.memcpy.p0.p0.i64(ptr align 16 %arrayidx12, ptr align 16 %endVertex, i64 16, i1 false)
  br label %if.end19

if.else:                                          ; preds = %if.then8
  %16 = load float, ptr %ds, align 4
  %mul = fmul float %16, 1.000000e+00
  %17 = load float, ptr %ds, align 4
  %18 = load float, ptr %de, align 4
  %sub13 = fsub float %17, %18
  %div = fdiv float %mul, %sub13
  %call14 = call { <2 x float>, <2 x float> } @_Z5lerp3RK9b3Vector3S1_f(ptr noundef nonnull align 16 dereferenceable(16) %firstVertex, ptr noundef nonnull align 16 dereferenceable(16) %endVertex, float noundef %div)
  %coerce.dive = getelementptr inbounds %class.b3Vector3, ptr %ref.tmp, i32 0, i32 0
  %coerce.dive15 = getelementptr inbounds %union.anon.1, ptr %coerce.dive, i32 0, i32 0
  %19 = getelementptr inbounds { <2 x float>, <2 x float> }, ptr %coerce.dive15, i32 0, i32 0
  %20 = extractvalue { <2 x float>, <2 x float> } %call14, 0
  store <2 x float> %20, ptr %19, align 16
  %21 = getelementptr inbounds { <2 x float>, <2 x float> }, ptr %coerce.dive15, i32 0, i32 1
  %22 = extractvalue { <2 x float>, <2 x float> } %call14, 1
  store <2 x float> %22, ptr %21, align 8
  %23 = load ptr, ptr %ppVtxOut.addr, align 8
  %24 = load i32, ptr %numVertsOut, align 4
  %inc16 = add nsw i32 %24, 1
  store i32 %inc16, ptr %numVertsOut, align 4
  %idxprom17 = sext i32 %24 to i64
  %arrayidx18 = getelementptr inbounds %class.b3Vector3, ptr %23, i64 %idxprom17
  call void @llvm.memcpy.p0.p0.i64(ptr align 16 %arrayidx18, ptr align 16 %ref.tmp, i64 16, i1 false)
  br label %if.end19

if.end19:                                         ; preds = %if.else, %if.then10
  br label %if.end37

if.else20:                                        ; preds = %for.body
  %25 = load float, ptr %de, align 4
  %cmp21 = fcmp olt float %25, 0.000000e+00
  br i1 %cmp21, label %if.then22, label %if.end36

if.then22:                                        ; preds = %if.else20
  %26 = load float, ptr %ds, align 4
  %mul24 = fmul float %26, 1.000000e+00
  %27 = load float, ptr %ds, align 4
  %28 = load float, ptr %de, align 4
  %sub25 = fsub float %27, %28
  %div26 = fdiv float %mul24, %sub25
  %call27 = call { <2 x float>, <2 x float> } @_Z5lerp3RK9b3Vector3S1_f(ptr noundef nonnull align 16 dereferenceable(16) %firstVertex, ptr noundef nonnull align 16 dereferenceable(16) %endVertex, float noundef %div26)
  %coerce.dive28 = getelementptr inbounds %class.b3Vector3, ptr %ref.tmp23, i32 0, i32 0
  %coerce.dive29 = getelementptr inbounds %union.anon.1, ptr %coerce.dive28, i32 0, i32 0
  %29 = getelementptr inbounds { <2 x float>, <2 x float> }, ptr %coerce.dive29, i32 0, i32 0
  %30 = extractvalue { <2 x float>, <2 x float> } %call27, 0
  store <2 x float> %30, ptr %29, align 16
  %31 = getelementptr inbounds { <2 x float>, <2 x float> }, ptr %coerce.dive29, i32 0, i32 1
  %32 = extractvalue { <2 x float>, <2 x float> } %call27, 1
  store <2 x float> %32, ptr %31, align 8
  %33 = load ptr, ptr %ppVtxOut.addr, align 8
  %34 = load i32, ptr %numVertsOut, align 4
  %inc30 = add nsw i32 %34, 1
  store i32 %inc30, ptr %numVertsOut, align 4
  %idxprom31 = sext i32 %34 to i64
  %arrayidx32 = getelementptr inbounds %class.b3Vector3, ptr %33, i64 %idxprom31
  call void @llvm.memcpy.p0.p0.i64(ptr align 16 %arrayidx32, ptr align 16 %ref.tmp23, i64 16, i1 false)
  %35 = load ptr, ptr %ppVtxOut.addr, align 8
  %36 = load i32, ptr %numVertsOut, align 4
  %inc33 = add nsw i32 %36, 1
  store i32 %inc33, ptr %numVertsOut, align 4
  %idxprom34 = sext i32 %36 to i64
  %arrayidx35 = getelementptr inbounds %class.b3Vector3, ptr %35, i64 %idxprom34
  call void @llvm.memcpy.p0.p0.i64(ptr align 16 %arrayidx35, ptr align 16 %endVertex, i64 16, i1 false)
  br label %if.end36

if.end36:                                         ; preds = %if.then22, %if.else20
  br label %if.end37

if.end37:                                         ; preds = %if.end36, %if.end19
  call void @llvm.memcpy.p0.p0.i64(ptr align 16 %firstVertex, ptr align 16 %endVertex, i64 16, i1 false)
  %37 = load float, ptr %de, align 4
  store float %37, ptr %ds, align 4
  br label %for.inc

for.inc:                                          ; preds = %if.end37
  %38 = load i32, ptr %ve, align 4
  %inc38 = add nsw i32 %38, 1
  store i32 %inc38, ptr %ve, align 4
  br label %for.cond, !llvm.loop !31

for.end:                                          ; preds = %for.cond
  %39 = load i32, ptr %numVertsOut, align 4
  store i32 %39, ptr %retval, align 4
  br label %return

return:                                           ; preds = %for.end, %if.then
  %40 = load i32, ptr %retval, align 4
  ret i32 %40
}